; Function Attrs: nounwind uwtable
define internal range(i32 0, 2) i32 @quic_shutdown_flush_wait(ptr noundef readonly captures(none) %0) #0 {
  %2 = getelementptr inbounds nuw i8, ptr %0, i64 160
  %3 = load ptr, ptr %2, align 8, !tbaa !113
  %4 = tail call i32 @ossl_quic_channel_is_term_any(ptr noundef %3) #12
  %.not = icmp eq i32 %4, 0
  br i1 %.not, label %5, label %qc_shutdown_flush_finished.exit

5:                                                ; preds = %1
  %6 = load ptr, ptr %2, align 8, !tbaa !113
  %7 = tail call ptr @ossl_quic_channel_get_qsm(ptr noundef %6) #12
  %8 = getelementptr inbounds nuw i8, ptr %0, i64 336
  %9 = load i16, ptr %8, align 8
  %10 = and i16 %9, 32
  %.not.i = icmp eq i16 %10, 0
  br i1 %.not.i, label %qc_shutdown_flush_finished.exit, label %11

11:                                               ; preds = %5
  %12 = tail call i32 @ossl_quic_stream_map_is_shutdown_flush_finished(ptr noundef %7) #12
  %13 = icmp ne i32 %12, 0
  %14 = zext i1 %13 to i32
  br label %qc_shutdown_flush_finished.exit

qc_shutdown_flush_finished.exit:                  ; preds = %11, %5, %1
  %15 = phi i32 [ 1, %1 ], [ 0, %5 ], [ %14, %11 ]
  ret i32 %15
}